target datalayout = "e-m:e-p270:32:32-p271:32:32-p272:64:64-i64:64-i128:128-f80:128-n8:16:32:64-S128"
target triple = "x86_64-unknown-linux-gnu"

%struct.VirtioDeviceClass = type { %struct.DeviceClass, ptr, ptr, ptr, ptr, ptr, ptr, ptr, ptr, ptr, ptr, ptr, ptr, i64, ptr, ptr, ptr, ptr, ptr, ptr, ptr, ptr, ptr, ptr, ptr }
%struct.DeviceClass = type { %struct.ObjectClass, [1 x i64], ptr, ptr, ptr, i8, i8, ptr, ptr, ptr, ptr, ptr }
%struct.ObjectClass = type { ptr, ptr, [4 x ptr], [4 x ptr], ptr, ptr }

@.str.3 = private unnamed_addr constant [14 x i8] c"virtio-device\00", align 1
@.str.4 = private unnamed_addr constant [105 x i8] c"/home/dtcxzyw/WorkSpace/Projects/compilers/llvm-opt-benchmark/bench/qemu/qemu/include/hw/virtio/virtio.h\00", align 1
@.str.8 = private unnamed_addr constant [7 x i8] c"device\00", align 1
@.str.9 = private unnamed_addr constant [101 x i8] c"/home/dtcxzyw/WorkSpace/Projects/compilers/llvm-opt-benchmark/bench/qemu/qemu/include/hw/qdev-core.h\00", align 1
@__func__.DEVICE_CLASS = private unnamed_addr constant [13 x i8] c"DEVICE_CLASS\00", align 1
@__func__.VIRTIO_DEVICE_CLASS = private unnamed_addr constant [20 x i8] c"VIRTIO_DEVICE_CLASS\00", align 1

; Function Attrs: nounwind sspstrong uwtable
define internal void @set_bit(i64 noundef %nr, ptr noundef %addr) #0 {
entry:
  %nr.addr = alloca i64, align 8
  %addr.addr = alloca ptr, align 8
  %mask = alloca i64, align 8
  %p = alloca ptr, align 8
  store i64 %nr, ptr %nr.addr, align 8
  store ptr %addr, ptr %addr.addr, align 8
  %0 = load i64, ptr %nr.addr, align 8
  %rem = urem i64 %0, 64
  %shl = shl i64 1, %rem
  store i64 %shl, ptr %mask, align 8
  %1 = load ptr, ptr %addr.addr, align 8
  %2 = load i64, ptr %nr.addr, align 8
  %div = udiv i64 %2, 64
  %add.ptr = getelementptr i64, ptr %1, i64 %div
  store ptr %add.ptr, ptr %p, align 8
  %3 = load i64, ptr %mask, align 8
  %4 = load ptr, ptr %p, align 8
  %5 = load i64, ptr %4, align 8
  %or = or i64 %5, %3
  store i64 %or, ptr %4, align 8
  ret void
}

; Function Attrs: nounwind sspstrong uwtable
define internal ptr @VIRTIO_DEVICE_CLASS(ptr noundef %klass) #0 {
entry:
  %klass.addr = alloca ptr, align 8
  store ptr %klass, ptr %klass.addr, align 8
  %0 = load ptr, ptr %klass.addr, align 8
  %call = call ptr @object_class_dynamic_cast_assert(ptr noundef %0, ptr noundef @.str.3, ptr noundef @.str.4, i32 noundef 85, ptr noundef @__func__.VIRTIO_DEVICE_CLASS)
  ret ptr %call
}

; Function Attrs: nounwind sspstrong uwtable
define internal ptr @DEVICE_CLASS(ptr noundef %klass) #0 {
entry:
  %klass.addr = alloca ptr, align 8
  store ptr %klass, ptr %klass.addr, align 8
  %0 = load ptr, ptr %klass.addr, align 8
  %call = call ptr @object_class_dynamic_cast_assert(ptr noundef %0, ptr noundef @.str.8, ptr noundef @.str.9, i32 noundef 77, ptr noundef @__func__.DEVICE_CLASS)
  ret ptr %call
}

; Function Attrs: nounwind sspstrong uwtable
define internal void @virtio_gpu_base_class_init(ptr noundef %klass, ptr noundef %data) #0 {
entry:
  %klass.addr = alloca ptr, align 8
  %data.addr = alloca ptr, align 8
  %dc = alloca ptr, align 8
  %vdc = alloca ptr, align 8
  store ptr %klass, ptr %klass.addr, align 8
  store ptr %data, ptr %data.addr, align 8
  %0 = load ptr, ptr %klass.addr, align 8
  %call = call ptr @DEVICE_CLASS(ptr noundef %0)
  store ptr %call, ptr %dc, align 8
  %1 = load ptr, ptr %klass.addr, align 8
  %call1 = call ptr @VIRTIO_DEVICE_CLASS(ptr noundef %1)
  store ptr %call1, ptr %vdc, align 8
  %2 = load ptr, ptr %vdc, align 8
  %unrealize = getelementptr inbounds %struct.VirtioDeviceClass, ptr %2, i32 0, i32 2
  store ptr @virtio_gpu_base_device_unrealize, ptr %unrealize, align 8
  %3 = load ptr, ptr %vdc, align 8
  %get_features = getelementptr inbounds %struct.VirtioDeviceClass, ptr %3, i32 0, i32 3
  store ptr @virtio_gpu_base_get_features, ptr %get_features, align 8
  %4 = load ptr, ptr %vdc, align 8
  %set_features = getelementptr inbounds %struct.VirtioDeviceClass, ptr %4, i32 0, i32 5
  store ptr @virtio_gpu_base_set_features, ptr %set_features, align 8
  %5 = load ptr, ptr %dc, align 8
  %categories = getelementptr inbounds %struct.DeviceClass, ptr %5, i32 0, i32 1
  %arraydecay = getelementptr inbounds [1 x i64], ptr %categories, i64 0, i64 0
  call void @set_bit(i64 noundef 5, ptr noundef %arraydecay)
  %6 = load ptr, ptr %dc, align 8
  %hotpluggable = getelementptr inbounds %struct.DeviceClass, ptr %6, i32 0, i32 6
  store i8 0, ptr %hotpluggable, align 1
  ret void
}