; Function Attrs: nounwind sspstrong uwtable
define internal void @virtio_gpu_base_class_init(ptr noundef %klass, ptr readnone captures(none) %data) #1 {
entry:
  %call.i = tail call ptr @object_class_dynamic_cast_assert(ptr noundef %klass, ptr noundef nonnull @.str.8, ptr noundef nonnull @.str.9, i32 noundef 77, ptr noundef nonnull @__func__.DEVICE_CLASS) #9
  %call.i5 = tail call ptr @object_class_dynamic_cast_assert(ptr noundef %klass, ptr noundef nonnull @.str.3, ptr noundef nonnull @.str.4, i32 noundef 85, ptr noundef nonnull @__func__.VIRTIO_DEVICE_CLASS) #9
  %unrealize = getelementptr inbounds nuw i8, ptr %call.i5, i64 184
  store ptr @virtio_gpu_base_device_unrealize, ptr %unrealize, align 8
  %get_features = getelementptr inbounds nuw i8, ptr %call.i5, i64 192
  store ptr @virtio_gpu_base_get_features, ptr %get_features, align 8
  %set_features = getelementptr inbounds nuw i8, ptr %call.i5, i64 208
  store ptr @virtio_gpu_base_set_features, ptr %set_features, align 8
  %categories = getelementptr inbounds nuw i8, ptr %call.i, i64 96
  %0 = load i64, ptr %categories, align 8
  %or.i = or i64 %0, 32
  store i64 %or.i, ptr %categories, align 8
  %hotpluggable = getelementptr inbounds nuw i8, ptr %call.i, i64 129
  store i8 0, ptr %hotpluggable, align 1
  ret void
}